target datalayout = "e-m:e-p270:32:32-p271:32:32-p272:64:64-i64:64-i128:128-f80:128-n8:16:32:64-S128"
target triple = "x86_64-pc-linux-gnu"

; Function Attrs: nounwind uwtable
define hidden void @ScaleRowUp2_Linear_16_C(ptr noundef %0, ptr noundef %1, i32 noundef %2) #0 {
  %4 = alloca ptr, align 8
  %5 = alloca ptr, align 8
  %6 = alloca i32, align 4
  %7 = alloca i32, align 4
  %8 = alloca i32, align 4
  store ptr %0, ptr %4, align 8
  store ptr %1, ptr %5, align 8
  store i32 %2, ptr %6, align 4
  %9 = load i32, ptr %6, align 4
  %10 = ashr i32 %9, 1
  store i32 %10, ptr %7, align 4
  store i32 0, ptr %8, align 4
  br label %11

11:                                               ; preds = %68, %3
  %12 = load i32, ptr %8, align 4
  %13 = load i32, ptr %7, align 4
  %14 = icmp slt i32 %12, %13
  br i1 %14, label %15, label %71

15:                                               ; preds = %11
  %16 = load ptr, ptr %4, align 8
  %17 = load i32, ptr %8, align 4
  %18 = add nsw i32 %17, 0
  %19 = sext i32 %18 to i64
  %20 = getelementptr inbounds i16, ptr %16, i64 %19
  %21 = load i16, ptr %20, align 2
  %22 = zext i16 %21 to i32
  %23 = mul nsw i32 %22, 3
  %24 = load ptr, ptr %4, align 8
  %25 = load i32, ptr %8, align 4
  %26 = add nsw i32 %25, 1
  %27 = sext i32 %26 to i64
  %28 = getelementptr inbounds i16, ptr %24, i64 %27
  %29 = load i16, ptr %28, align 2
  %30 = zext i16 %29 to i32
  %31 = mul nsw i32 %30, 1
  %32 = add nsw i32 %23, %31
  %33 = add nsw i32 %32, 2
  %34 = ashr i32 %33, 2
  %35 = trunc i32 %34 to i16
  %36 = load ptr, ptr %5, align 8
  %37 = load i32, ptr %8, align 4
  %38 = mul nsw i32 2, %37
  %39 = add nsw i32 %38, 0
  %40 = sext i32 %39 to i64
  %41 = getelementptr inbounds i16, ptr %36, i64 %40
  store i16 %35, ptr %41, align 2
  %42 = load ptr, ptr %4, align 8
  %43 = load i32, ptr %8, align 4
  %44 = add nsw i32 %43, 0
  %45 = sext i32 %44 to i64
  %46 = getelementptr inbounds i16, ptr %42, i64 %45
  %47 = load i16, ptr %46, align 2
  %48 = zext i16 %47 to i32
  %49 = mul nsw i32 %48, 1
  %50 = load ptr, ptr %4, align 8
  %51 = load i32, ptr %8, align 4
  %52 = add nsw i32 %51, 1
  %53 = sext i32 %52 to i64
  %54 = getelementptr inbounds i16, ptr %50, i64 %53
  %55 = load i16, ptr %54, align 2
  %56 = zext i16 %55 to i32
  %57 = mul nsw i32 %56, 3
  %58 = add nsw i32 %49, %57
  %59 = add nsw i32 %58, 2
  %60 = ashr i32 %59, 2
  %61 = trunc i32 %60 to i16
  %62 = load ptr, ptr %5, align 8
  %63 = load i32, ptr %8, align 4
  %64 = mul nsw i32 2, %63
  %65 = add nsw i32 %64, 1
  %66 = sext i32 %65 to i64
  %67 = getelementptr inbounds i16, ptr %62, i64 %66
  store i16 %61, ptr %67, align 2
  br label %68

68:                                               ; preds = %15
  %69 = load i32, ptr %8, align 4
  %70 = add nsw i32 %69, 1
  store i32 %70, ptr %8, align 4
  br label %11, !llvm.loop !7

71:                                               ; preds = %11
  ret void
}