; Function Attrs: nofree norecurse nosync nounwind memory(argmem: readwrite) uwtable
define hidden void @ScaleRowUp2_Linear_16_C(ptr noundef readonly captures(none) %0, ptr noundef writeonly captures(none) %1, i32 noundef %2) local_unnamed_addr #0 {
  %4 = ashr i32 %2, 1
  %5 = icmp sgt i32 %4, 0
  br i1 %5, label %.lr.ph.preheader, label %._crit_edge

.lr.ph.preheader:                                 ; preds = %3
  %wide.trip.count = zext nneg i32 %4 to i64
  br label %.lr.ph

.lr.ph:                                           ; preds = %.lr.ph.preheader, %.lr.ph
  %indvars.iv = phi i64 [ 0, %.lr.ph.preheader ], [ %indvars.iv.next, %.lr.ph ]
  %6 = getelementptr inbounds nuw i16, ptr %0, i64 %indvars.iv
  %7 = load i16, ptr %6, align 2
  %8 = zext i16 %7 to i32
  %9 = mul nuw nsw i32 %8, 3
  %indvars.iv.next = add nuw nsw i64 %indvars.iv, 1
  %10 = getelementptr inbounds nuw i16, ptr %0, i64 %indvars.iv.next
  %11 = load i16, ptr %10, align 2
  %12 = zext i16 %11 to i32
  %13 = add nuw nsw i32 %12, 2
  %14 = add nuw nsw i32 %13, %9
  %15 = lshr i32 %14, 2
  %16 = trunc nuw i32 %15 to i16
  %17 = shl nuw nsw i64 %indvars.iv, 1
  %18 = getelementptr inbounds nuw i16, ptr %1, i64 %17
  store i16 %16, ptr %18, align 2
  %19 = load i16, ptr %6, align 2
  %20 = zext i16 %19 to i32
  %21 = load i16, ptr %10, align 2
  %22 = zext i16 %21 to i32
  %23 = mul nuw nsw i32 %22, 3
  %24 = add nuw nsw i32 %20, 2
  %25 = add nuw nsw i32 %24, %23
  %26 = lshr i32 %25, 2
  %27 = trunc nuw i32 %26 to i16
  %28 = or disjoint i64 %17, 1
  %29 = getelementptr inbounds nuw i16, ptr %1, i64 %28
  store i16 %27, ptr %29, align 2
  %exitcond.not = icmp eq i64 %indvars.iv.next, %wide.trip.count
  br i1 %exitcond.not, label %._crit_edge, label %.lr.ph, !llvm.loop !7

._crit_edge:                                      ; preds = %.lr.ph, %3
  ret void
}